target datalayout = "e-m:e-p270:32:32-p271:32:32-p272:64:64-i64:64-i128:128-f80:128-n8:16:32:64-S128"
target triple = "x86_64-pc-linux-gnu"

%struct.catcache = type { i32, i32, ptr, ptr, [4 x ptr], [4 x ptr], [4 x i32], i32, i32, i32, i32, ptr, ptr, i32, i32, i8, %struct.slist_node, [4 x %struct.ScanKeyData] }
%struct.slist_node = type { ptr }
%struct.ScanKeyData = type { i32, i16, i16, i32, i32, %struct.FmgrInfo, i64 }
%struct.FmgrInfo = type { ptr, i32, i16, i8, i8, i8, ptr, ptr, ptr }

@SysCache = internal global [85 x ptr] zeroinitializer, align 16
@.str.1 = private unnamed_addr constant [11 x i8] c"syscache.c\00", align 1
@.str.2 = private unnamed_addr constant [21 x i8] c"invalid cache ID: %d\00", align 1
@__func__.SysCacheGetAttr = private unnamed_addr constant [16 x i8] c"SysCacheGetAttr\00", align 1

; Function Attrs: nounwind uwtable
define dso_local i64 @SysCacheGetAttr(i32 noundef %0, ptr noundef %1, i16 noundef signext %2, ptr noundef %3) #0 {
  %5 = alloca i32, align 4
  %6 = alloca ptr, align 8
  %7 = alloca i16, align 2
  %8 = alloca ptr, align 8
  store i32 %0, ptr %5, align 4
  store ptr %1, ptr %6, align 8
  store i16 %2, ptr %7, align 2
  store ptr %3, ptr %8, align 8
  %9 = load i32, ptr %5, align 4
  %10 = icmp slt i32 %9, 0
  br i1 %10, label %20, label %11

11:                                               ; preds = %4
  %12 = load i32, ptr %5, align 4
  %13 = icmp sge i32 %12, 85
  br i1 %13, label %20, label %14

14:                                               ; preds = %11
  %15 = load i32, ptr %5, align 4
  %16 = sext i32 %15 to i64
  %17 = getelementptr inbounds [85 x ptr], ptr @SysCache, i64 0, i64 %16
  %18 = load ptr, ptr %17, align 8
  %19 = icmp ne ptr %18, null
  br i1 %19, label %31, label %20

20:                                               ; preds = %14, %11, %4
  br label %21

21:                                               ; preds = %20
  br i1 true, label %22, label %24

22:                                               ; preds = %21
  %23 = call zeroext i1 @errstart_cold(i32 noundef 21, ptr noundef null) #7
  br i1 %23, label %26, label %29

24:                                               ; preds = %21
  %25 = call zeroext i1 @errstart(i32 noundef 21, ptr noundef null)
  br i1 %25, label %26, label %29

26:                                               ; preds = %24, %22
  %27 = load i32, ptr %5, align 4
  %28 = call i32 (ptr, ...) @errmsg_internal(ptr noundef @.str.2, i32 noundef %27)
  call void @errfinish(ptr noundef @.str.1, i32 noundef 612, ptr noundef @__func__.SysCacheGetAttr)
  br label %29

29:                                               ; preds = %26, %24, %22
  unreachable

30:                                               ; No predecessors!
  br label %31

31:                                               ; preds = %30, %14
  %32 = load i32, ptr %5, align 4
  %33 = sext i32 %32 to i64
  %34 = getelementptr inbounds [85 x ptr], ptr @SysCache, i64 0, i64 %33
  %35 = load ptr, ptr %34, align 8
  %36 = getelementptr inbounds nuw %struct.catcache, ptr %35, i32 0, i32 2
  %37 = load ptr, ptr %36, align 8
  %38 = icmp ne ptr %37, null
  br i1 %38, label %44, label %39

39:                                               ; preds = %31
  %40 = load i32, ptr %5, align 4
  %41 = sext i32 %40 to i64
  %42 = getelementptr inbounds [85 x ptr], ptr @SysCache, i64 0, i64 %41
  %43 = load ptr, ptr %42, align 8
  call void @InitCatCachePhase2(ptr noundef %43, i1 noundef zeroext false)
  br label %44

44:                                               ; preds = %39, %31
  %45 = load ptr, ptr %6, align 8
  %46 = load i16, ptr %7, align 2
  %47 = sext i16 %46 to i32
  %48 = load i32, ptr %5, align 4
  %49 = sext i32 %48 to i64
  %50 = getelementptr inbounds [85 x ptr], ptr @SysCache, i64 0, i64 %49
  %51 = load ptr, ptr %50, align 8
  %52 = getelementptr inbounds nuw %struct.catcache, ptr %51, i32 0, i32 2
  %53 = load ptr, ptr %52, align 8
  %54 = load ptr, ptr %8, align 8
  %55 = call i64 @heap_getattr(ptr noundef %45, i32 noundef %47, ptr noundef %53, ptr noundef %54)
  ret i64 %55
}