; Function Attrs: nounwind uwtable
define dso_local i64 @SysCacheGetAttr(i32 noundef %0, ptr noundef %1, i16 noundef signext %2, ptr noundef %3) local_unnamed_addr #0 {
  %or.cond = icmp ugt i32 %0, 84
  br i1 %or.cond, label %9, label %5

5:                                                ; preds = %4
  %6 = zext nneg i32 %0 to i64
  %7 = getelementptr inbounds nuw [85 x ptr], ptr @SysCache, i64 0, i64 %6
  %8 = load ptr, ptr %7, align 8
  %.not = icmp eq ptr %8, null
  br i1 %.not, label %9, label %12

9:                                                ; preds = %5, %4
  %10 = tail call zeroext i1 @errstart_cold(i32 noundef 21, ptr noundef null) #12
  tail call void @llvm.assume(i1 %10)
  %11 = tail call i32 (ptr, ...) @errmsg_internal(ptr noundef nonnull @.str.2, i32 noundef %0) #11
  tail call void @errfinish(ptr noundef nonnull @.str.1, i32 noundef 612, ptr noundef nonnull @__func__.SysCacheGetAttr) #11
  unreachable

12:                                               ; preds = %5
  %13 = getelementptr inbounds nuw i8, ptr %8, i64 8
  %14 = load ptr, ptr %13, align 8
  %.not11 = icmp eq ptr %14, null
  br i1 %.not11, label %15, label %16

15:                                               ; preds = %12
  tail call void @InitCatCachePhase2(ptr noundef nonnull %8, i1 noundef zeroext false) #11
  %.pre = load ptr, ptr %7, align 8
  %.phi.trans.insert = getelementptr inbounds nuw i8, ptr %.pre, i64 8
  %.pre12 = load ptr, ptr %.phi.trans.insert, align 8
  br label %16

16:                                               ; preds = %15, %12
  %17 = phi ptr [ %.pre12, %15 ], [ %14, %12 ]
  %18 = sext i16 %2 to i32
  %19 = tail call fastcc i64 @heap_getattr(ptr noundef %1, i32 noundef %18, ptr noundef %17, ptr noundef %3)
  ret i64 %19
}